target datalayout = "e-m:e-p270:32:32-p271:32:32-p272:64:64-i64:64-i128:128-f80:128-n8:16:32:64-S128"
target triple = "x86_64-pc-linux-gnu"

; Function Attrs: mustprogress uwtable
define void @_ZN6icu_777Package7addFileEPKcS2_(ptr noundef nonnull align 8 dereferenceable(201237) %0, ptr noundef %1, ptr noundef %2) #0 align 2 {
  %4 = alloca ptr, align 8
  %5 = alloca ptr, align 8
  %6 = alloca ptr, align 8
  %7 = alloca ptr, align 8
  %8 = alloca i32, align 4
  %9 = alloca i8, align 1
  store ptr %0, ptr %4, align 8, !tbaa !26
  store ptr %1, ptr %5, align 8, !tbaa !3
  store ptr %2, ptr %6, align 8, !tbaa !3
  %10 = load ptr, ptr %4, align 8
  call void @llvm.lifetime.start.p0(i64 8, ptr %7) #13
  call void @llvm.lifetime.start.p0(i64 4, ptr %8) #13
  call void @llvm.lifetime.start.p0(i64 1, ptr %9) #13
  %11 = load ptr, ptr %5, align 8, !tbaa !3
  %12 = load ptr, ptr %6, align 8, !tbaa !3
  %13 = call noundef ptr @_ZL8readFilePKcS0_RiRc(ptr noundef %11, ptr noundef %12, ptr noundef nonnull align 4 dereferenceable(4) %8, ptr noundef nonnull align 1 dereferenceable(1) %9)
  store ptr %13, ptr %7, align 8, !tbaa !3
  %14 = load ptr, ptr %6, align 8, !tbaa !3
  %15 = load ptr, ptr %7, align 8, !tbaa !3
  %16 = load i32, ptr %8, align 4, !tbaa !8
  %17 = load i8, ptr %9, align 1, !tbaa !32
  call void @_ZN6icu_777Package7addItemEPKcPhiac(ptr noundef nonnull align 8 dereferenceable(201237) %10, ptr noundef %14, ptr noundef %15, i32 noundef %16, i8 noundef signext 1, i8 noundef signext %17)
  call void @llvm.lifetime.end.p0(i64 1, ptr %9) #13
  call void @llvm.lifetime.end.p0(i64 4, ptr %8) #13
  call void @llvm.lifetime.end.p0(i64 8, ptr %7) #13
  ret void
}