; Function Attrs: mustprogress uwtable
define void @_ZN6icu_777Package7addFileEPKcS2_(ptr noundef nonnull align 8 dereferenceable(201237) %0, ptr noundef %1, ptr noundef %2) local_unnamed_addr #13 align 2 {
  %4 = alloca i32, align 4
  %5 = alloca i8, align 1
  call void @llvm.lifetime.start.p0(i64 4, ptr nonnull %4) #23
  call void @llvm.lifetime.start.p0(i64 1, ptr nonnull %5) #23
  %6 = call fastcc noundef ptr @_ZL8readFilePKcS0_RiRc(ptr noundef %1, ptr noundef %2, ptr noundef nonnull align 4 dereferenceable(4) %4, ptr noundef nonnull align 1 dereferenceable(1) %5)
  %7 = load i32, ptr %4, align 4, !tbaa !17
  %8 = load i8, ptr %5, align 1, !tbaa !19
  tail call void @_ZN6icu_777Package7addItemEPKcPhiac(ptr noundef nonnull align 8 dereferenceable(201237) %0, ptr noundef %2, ptr noundef %6, i32 noundef %7, i8 noundef signext 1, i8 noundef signext %8)
  call void @llvm.lifetime.end.p0(i64 1, ptr nonnull %5) #23
  call void @llvm.lifetime.end.p0(i64 4, ptr nonnull %4) #23
  ret void
}